target datalayout = "e-m:e-p270:32:32-p271:32:32-p272:64:64-i64:64-i128:128-f80:128-n8:16:32:64-S128"
target triple = "x86_64-unknown-linux-gnu"

%"class.arrow::Status" = type { ptr }
%"struct.arrow::ArraySpan" = type { ptr, i64, i64, i64, [3 x %"struct.arrow::BufferSpan"], %"class.std::vector.5" }
%"struct.arrow::BufferSpan" = type { ptr, i64, ptr }
%"class.std::vector.5" = type { %"struct.std::_Vector_base.6" }
%"struct.std::_Vector_base.6" = type { %"struct.std::_Vector_base<arrow::ArraySpan, std::allocator<arrow::ArraySpan>>::_Vector_impl" }
%"struct.std::_Vector_base<arrow::ArraySpan, std::allocator<arrow::ArraySpan>>::_Vector_impl" = type { %"struct.std::_Vector_base<arrow::ArraySpan, std::allocator<arrow::ArraySpan>>::_Vector_impl_data" }
%"struct.std::_Vector_base<arrow::ArraySpan, std::allocator<arrow::ArraySpan>>::_Vector_impl_data" = type { ptr, ptr, ptr }
%"class.arrow::DataType" = type { %"class.arrow::detail::Fingerprintable", %"class.std::enable_shared_from_this", i32, %"class.std::vector" }
%"class.arrow::detail::Fingerprintable" = type { ptr, %"struct.std::atomic", %"struct.std::atomic" }
%"struct.std::atomic" = type { %"struct.std::__atomic_base" }
%"struct.std::__atomic_base" = type { ptr }
%"class.std::enable_shared_from_this" = type { %"class.std::weak_ptr" }
%"class.std::weak_ptr" = type { %"class.std::__weak_ptr" }
%"class.std::__weak_ptr" = type { ptr, %"class.std::__weak_count" }
%"class.std::__weak_count" = type { ptr }
%"class.std::vector" = type { %"struct.std::_Vector_base" }
%"struct.std::_Vector_base" = type { %"struct.std::_Vector_base<std::shared_ptr<arrow::Field>, std::allocator<std::shared_ptr<arrow::Field>>>::_Vector_impl" }
%"struct.std::_Vector_base<std::shared_ptr<arrow::Field>, std::allocator<std::shared_ptr<arrow::Field>>>::_Vector_impl" = type { %"struct.std::_Vector_base<std::shared_ptr<arrow::Field>, std::allocator<std::shared_ptr<arrow::Field>>>::_Vector_impl_data" }
%"struct.std::_Vector_base<std::shared_ptr<arrow::Field>, std::allocator<std::shared_ptr<arrow::Field>>>::_Vector_impl_data" = type { ptr, ptr, ptr }
%"struct.arrow::Scalar" = type <{ ptr, %"class.std::enable_shared_from_this.10", %"class.std::shared_ptr", i8, [7 x i8] }>
%"class.std::enable_shared_from_this.10" = type { %"class.std::weak_ptr.11" }
%"class.std::weak_ptr.11" = type { %"class.std::__weak_ptr.12" }
%"class.std::__weak_ptr.12" = type { ptr, %"class.std::__weak_count" }
%"class.std::shared_ptr" = type { %"class.std::__shared_ptr" }
%"class.std::__shared_ptr" = type { ptr, %"class.std::__shared_count" }
%"class.std::__shared_count" = type { ptr }

@.str.3 = private unnamed_addr constant [25 x i8] c"Scalar is not an integer\00", align 1

; Function Attrs: mustprogress nounwind uwtable
define linkonce_odr void @_ZNSt15__new_allocatorIN5arrow9ArraySpanEEC2Ev(ptr noundef nonnull align 1 dereferenceable(1) %this) unnamed_addr #0 comdat align 2 {
entry:
  %this.addr = alloca ptr, align 8
  store ptr %this, ptr %this.addr, align 8
  ret void
}

; Function Attrs: mustprogress nounwind uwtable
define linkonce_odr void @_ZNSt12_Vector_baseIN5arrow9ArraySpanESaIS1_EE17_Vector_impl_dataC2Ev(ptr noundef nonnull align 8 dereferenceable(24) %this) unnamed_addr #0 comdat align 2 {
entry:
  %this.addr = alloca ptr, align 8
  store ptr %this, ptr %this.addr, align 8
  %this1 = load ptr, ptr %this.addr, align 8
  %_M_start = getelementptr inbounds %"struct.std::_Vector_base<arrow::ArraySpan, std::allocator<arrow::ArraySpan>>::_Vector_impl_data", ptr %this1, i32 0, i32 0
  store ptr null, ptr %_M_start, align 8
  %_M_finish = getelementptr inbounds %"struct.std::_Vector_base<arrow::ArraySpan, std::allocator<arrow::ArraySpan>>::_Vector_impl_data", ptr %this1, i32 0, i32 1
  store ptr null, ptr %_M_finish, align 8
  %_M_end_of_storage = getelementptr inbounds %"struct.std::_Vector_base<arrow::ArraySpan, std::allocator<arrow::ArraySpan>>::_Vector_impl_data", ptr %this1, i32 0, i32 2
  store ptr null, ptr %_M_end_of_storage, align 8
  ret void
}

; Function Attrs: mustprogress nounwind uwtable
define linkonce_odr void @_ZNSaIN5arrow9ArraySpanEEC2Ev(ptr noundef nonnull align 1 dereferenceable(1) %this) unnamed_addr #0 comdat align 2 {
entry:
  %this.addr = alloca ptr, align 8
  store ptr %this, ptr %this.addr, align 8
  %this1 = load ptr, ptr %this.addr, align 8
  call void @_ZNSt15__new_allocatorIN5arrow9ArraySpanEEC2Ev(ptr noundef nonnull align 1 dereferenceable(1) %this1) #9
  ret void
}

; Function Attrs: mustprogress nounwind uwtable
define linkonce_odr void @_ZNSt12_Vector_baseIN5arrow9ArraySpanESaIS1_EE12_Vector_implC2Ev(ptr noundef nonnull align 8 dereferenceable(24) %this) unnamed_addr #0 comdat align 2 {
entry:
  %this.addr = alloca ptr, align 8
  store ptr %this, ptr %this.addr, align 8
  %this1 = load ptr, ptr %this.addr, align 8
  call void @_ZNSaIN5arrow9ArraySpanEEC2Ev(ptr noundef nonnull align 1 dereferenceable(1) %this1) #9
  call void @_ZNSt12_Vector_baseIN5arrow9ArraySpanESaIS1_EE17_Vector_impl_dataC2Ev(ptr noundef nonnull align 8 dereferenceable(24) %this1) #9
  ret void
}

; Function Attrs: mustprogress nounwind uwtable
define linkonce_odr void @_ZNSt12_Vector_baseIN5arrow9ArraySpanESaIS1_EEC2Ev(ptr noundef nonnull align 8 dereferenceable(24) %this) unnamed_addr #0 comdat align 2 {
entry:
  %this.addr = alloca ptr, align 8
  store ptr %this, ptr %this.addr, align 8
  %this1 = load ptr, ptr %this.addr, align 8
  %_M_impl = getelementptr inbounds %"struct.std::_Vector_base.6", ptr %this1, i32 0, i32 0
  call void @_ZNSt12_Vector_baseIN5arrow9ArraySpanESaIS1_EE12_Vector_implC2Ev(ptr noundef nonnull align 8 dereferenceable(24) %_M_impl) #9
  ret void
}

; Function Attrs: mustprogress nounwind uwtable
define linkonce_odr noundef ptr @_ZNKSt12__shared_ptrIN5arrow8DataTypeELN9__gnu_cxx12_Lock_policyE2EE3getEv(ptr noundef nonnull align 8 dereferenceable(16) %this) #0 comdat align 2 {
entry:
  %this.addr = alloca ptr, align 8
  store ptr %this, ptr %this.addr, align 8
  %this1 = load ptr, ptr %this.addr, align 8
  %_M_ptr = getelementptr inbounds %"class.std::__shared_ptr", ptr %this1, i32 0, i32 0
  %0 = load ptr, ptr %_M_ptr, align 8
  ret ptr %0
}

; Function Attrs: mustprogress nounwind uwtable
define linkonce_odr void @_ZNSt6vectorIN5arrow9ArraySpanESaIS1_EEC2Ev(ptr noundef nonnull align 8 dereferenceable(24) %this) unnamed_addr #0 comdat align 2 {
entry:
  %this.addr = alloca ptr, align 8
  store ptr %this, ptr %this.addr, align 8
  %this1 = load ptr, ptr %this.addr, align 8
  call void @_ZNSt12_Vector_baseIN5arrow9ArraySpanESaIS1_EEC2Ev(ptr noundef nonnull align 8 dereferenceable(24) %this1) #9
  ret void
}

; Function Attrs: mustprogress nounwind uwtable
define linkonce_odr void @_ZN5arrow10BufferSpanC2Ev(ptr noundef nonnull align 8 dereferenceable(24) %this) unnamed_addr #0 comdat align 2 {
entry:
  %this.addr = alloca ptr, align 8
  store ptr %this, ptr %this.addr, align 8
  %this1 = load ptr, ptr %this.addr, align 8
  %data = getelementptr inbounds %"struct.arrow::BufferSpan", ptr %this1, i32 0, i32 0
  store ptr null, ptr %data, align 8
  %size = getelementptr inbounds %"struct.arrow::BufferSpan", ptr %this1, i32 0, i32 1
  store i64 0, ptr %size, align 8
  %owner = getelementptr inbounds %"struct.arrow::BufferSpan", ptr %this1, i32 0, i32 2
  store ptr null, ptr %owner, align 8
  ret void
}

; Function Attrs: mustprogress nounwind uwtable
define linkonce_odr void @_ZN5arrow6StatusC2Ev(ptr noundef nonnull align 8 dereferenceable(8) %this) unnamed_addr #0 comdat align 2 {
entry:
  %this.addr = alloca ptr, align 8
  store ptr %this, ptr %this.addr, align 8
  %this1 = load ptr, ptr %this.addr, align 8
  %state_ = getelementptr inbounds %"class.arrow::Status", ptr %this1, i32 0, i32 0
  store ptr null, ptr %state_, align 8
  ret void
}

; Function Attrs: mustprogress nounwind uwtable
define linkonce_odr noundef ptr @_ZNKSt19__shared_ptr_accessIN5arrow8DataTypeELN9__gnu_cxx12_Lock_policyE2ELb0ELb0EE6_M_getEv(ptr noundef nonnull align 1 dereferenceable(1) %this) #0 comdat align 2 {
entry:
  %this.addr = alloca ptr, align 8
  store ptr %this, ptr %this.addr, align 8
  %this1 = load ptr, ptr %this.addr, align 8
  %call = call noundef ptr @_ZNKSt12__shared_ptrIN5arrow8DataTypeELN9__gnu_cxx12_Lock_policyE2EE3getEv(ptr noundef nonnull align 8 dereferenceable(16) %this1) #9
  ret ptr %call
}

; Function Attrs: mustprogress uwtable
define linkonce_odr void @_ZN5arrow9ArraySpanC2ERKNS_6ScalarE(ptr noundef nonnull align 8 dereferenceable(128) %this, ptr noundef nonnull align 8 dereferenceable(41) %data) unnamed_addr #1 comdat align 2 personality ptr @__gxx_personality_v0 {
entry:
  %this.addr = alloca ptr, align 8
  %data.addr = alloca ptr, align 8
  %exn.slot = alloca ptr, align 8
  %ehselector.slot = alloca i32, align 4
  store ptr %this, ptr %this.addr, align 8
  store ptr %data, ptr %data.addr, align 8
  %this1 = load ptr, ptr %this.addr, align 8
  %type = getelementptr inbounds %"struct.arrow::ArraySpan", ptr %this1, i32 0, i32 0
  store ptr null, ptr %type, align 8
  %length = getelementptr inbounds %"struct.arrow::ArraySpan", ptr %this1, i32 0, i32 1
  store i64 0, ptr %length, align 8
  %null_count = getelementptr inbounds %"struct.arrow::ArraySpan", ptr %this1, i32 0, i32 2
  store i64 -1, ptr %null_count, align 8
  %offset = getelementptr inbounds %"struct.arrow::ArraySpan", ptr %this1, i32 0, i32 3
  store i64 0, ptr %offset, align 8
  %buffers = getelementptr inbounds %"struct.arrow::ArraySpan", ptr %this1, i32 0, i32 4
  %array.begin = getelementptr inbounds [3 x %"struct.arrow::BufferSpan"], ptr %buffers, i32 0, i32 0
  %arrayctor.end = getelementptr inbounds %"struct.arrow::BufferSpan", ptr %array.begin, i64 3
  br label %arrayctor.loop

arrayctor.loop:                                   ; preds = %arrayctor.loop, %entry
  %arrayctor.cur = phi ptr [ %array.begin, %entry ], [ %arrayctor.next, %arrayctor.loop ]
  call void @_ZN5arrow10BufferSpanC2Ev(ptr noundef nonnull align 8 dereferenceable(24) %arrayctor.cur) #9
  %arrayctor.next = getelementptr inbounds %"struct.arrow::BufferSpan", ptr %arrayctor.cur, i64 1
  %arrayctor.done = icmp eq ptr %arrayctor.next, %arrayctor.end
  br i1 %arrayctor.done, label %arrayctor.cont, label %arrayctor.loop

arrayctor.cont:                                   ; preds = %arrayctor.loop
  %child_data = getelementptr inbounds %"struct.arrow::ArraySpan", ptr %this1, i32 0, i32 5
  call void @_ZNSt6vectorIN5arrow9ArraySpanESaIS1_EEC2Ev(ptr noundef nonnull align 8 dereferenceable(24) %child_data) #9
  %0 = load ptr, ptr %data.addr, align 8
  invoke void @_ZN5arrow9ArraySpan14FillFromScalarERKNS_6ScalarE(ptr noundef nonnull align 8 dereferenceable(128) %this1, ptr noundef nonnull align 8 dereferenceable(41) %0)
          to label %invoke.cont unwind label %lpad

invoke.cont:                                      ; preds = %arrayctor.cont
  ret void

lpad:                                             ; preds = %arrayctor.cont
  %1 = landingpad { ptr, i32 }
          cleanup
  %2 = extractvalue { ptr, i32 } %1, 0
  store ptr %2, ptr %exn.slot, align 8
  %3 = extractvalue { ptr, i32 } %1, 1
  store i32 %3, ptr %ehselector.slot, align 4
  call void @_ZNSt6vectorIN5arrow9ArraySpanESaIS1_EED2Ev(ptr noundef nonnull align 8 dereferenceable(24) %child_data) #9
  br label %eh.resume

eh.resume:                                        ; preds = %lpad
  %exn = load ptr, ptr %exn.slot, align 8
  %sel = load i32, ptr %ehselector.slot, align 4
  %lpad.val = insertvalue { ptr, i32 } poison, ptr %exn, 0
  %lpad.val2 = insertvalue { ptr, i32 } %lpad.val, i32 %sel, 1
  resume { ptr, i32 } %lpad.val2
}

; Function Attrs: mustprogress nounwind uwtable
define linkonce_odr void @_ZN5arrow6Status2OKEv(ptr noalias sret(%"class.arrow::Status") align 8 %agg.result) #0 comdat align 2 {
entry:
  %result.ptr = alloca ptr, align 8
  store ptr %agg.result, ptr %result.ptr, align 8
  call void @_ZN5arrow6StatusC2Ev(ptr noundef nonnull align 8 dereferenceable(8) %agg.result) #9
  ret void
}

; Function Attrs: mustprogress uwtable
define linkonce_odr void @_ZN5arrow6Status7InvalidIJRA25_KcEEES0_DpOT_(ptr noalias sret(%"class.arrow::Status") align 8 %agg.result, ptr noundef nonnull align 1 dereferenceable(25) %args) #1 comdat align 2 {
entry:
  %result.ptr = alloca ptr, align 8
  %args.addr = alloca ptr, align 8
  store ptr %agg.result, ptr %result.ptr, align 8
  store ptr %args, ptr %args.addr, align 8
  %0 = load ptr, ptr %args.addr, align 8
  call void @_ZN5arrow6Status8FromArgsIJRA25_KcEEES0_NS_10StatusCodeEDpOT_(ptr sret(%"class.arrow::Status") align 8 %agg.result, i8 noundef signext 4, ptr noundef nonnull align 1 dereferenceable(25) %0)
  ret void
}

; Function Attrs: mustprogress nounwind uwtable
define linkonce_odr noundef zeroext i1 @_ZN5arrow10is_integerENS_4Type4typeE(i32 noundef %type_id) #0 comdat {
entry:
  %retval = alloca i1, align 1
  %type_id.addr = alloca i32, align 4
  store i32 %type_id, ptr %type_id.addr, align 4
  %0 = load i32, ptr %type_id.addr, align 4
  switch i32 %0, label %sw.default [
    i32 2, label %sw.bb
    i32 3, label %sw.bb
    i32 4, label %sw.bb
    i32 5, label %sw.bb
    i32 6, label %sw.bb
    i32 7, label %sw.bb
    i32 8, label %sw.bb
    i32 9, label %sw.bb
  ]

sw.bb:                                            ; preds = %entry, %entry, %entry, %entry, %entry, %entry, %entry, %entry
  store i1 true, ptr %retval, align 1
  br label %return

sw.default:                                       ; preds = %entry
  br label %sw.epilog

sw.epilog:                                        ; preds = %sw.default
  store i1 false, ptr %retval, align 1
  br label %return

return:                                           ; preds = %sw.epilog, %sw.bb
  %1 = load i1, ptr %retval, align 1
  ret i1 %1
}

; Function Attrs: mustprogress nounwind uwtable
define linkonce_odr noundef i32 @_ZNK5arrow8DataType2idEv(ptr noundef nonnull align 8 dereferenceable(72) %this) #0 comdat align 2 {
entry:
  %this.addr = alloca ptr, align 8
  store ptr %this, ptr %this.addr, align 8
  %this1 = load ptr, ptr %this.addr, align 8
  %id_ = getelementptr inbounds %"class.arrow::DataType", ptr %this1, i32 0, i32 2
  %0 = load i32, ptr %id_, align 8
  ret i32 %0
}

; Function Attrs: mustprogress nounwind uwtable
define linkonce_odr noundef ptr @_ZNKSt19__shared_ptr_accessIN5arrow8DataTypeELN9__gnu_cxx12_Lock_policyE2ELb0ELb0EEptEv(ptr noundef nonnull align 1 dereferenceable(1) %this) #0 comdat align 2 {
entry:
  %this.addr = alloca ptr, align 8
  store ptr %this, ptr %this.addr, align 8
  %this1 = load ptr, ptr %this.addr, align 8
  %call = call noundef ptr @_ZNKSt19__shared_ptr_accessIN5arrow8DataTypeELN9__gnu_cxx12_Lock_policyE2ELb0ELb0EE6_M_getEv(ptr noundef nonnull align 1 dereferenceable(1) %this1) #9
  ret ptr %call
}

; Function Attrs: mustprogress uwtable
define void @_ZN5arrow8internal14IntegersCanFitERKNS_6ScalarERKNS_8DataTypeE(ptr noalias sret(%"class.arrow::Status") align 8 %agg.result, ptr noundef nonnull align 8 dereferenceable(41) %scalar, ptr noundef nonnull align 8 dereferenceable(72) %target_type) #1 personality ptr @__gxx_personality_v0 {
entry:
  %result.ptr = alloca ptr, align 8
  %scalar.addr = alloca ptr, align 8
  %target_type.addr = alloca ptr, align 8
  %span = alloca %"struct.arrow::ArraySpan", align 8
  %exn.slot = alloca ptr, align 8
  %ehselector.slot = alloca i32, align 4
  store ptr %agg.result, ptr %result.ptr, align 8
  store ptr %scalar, ptr %scalar.addr, align 8
  store ptr %target_type, ptr %target_type.addr, align 8
  %0 = load ptr, ptr %scalar.addr, align 8
  %type = getelementptr inbounds %"struct.arrow::Scalar", ptr %0, i32 0, i32 2
  %call = call noundef ptr @_ZNKSt19__shared_ptr_accessIN5arrow8DataTypeELN9__gnu_cxx12_Lock_policyE2ELb0ELb0EEptEv(ptr noundef nonnull align 1 dereferenceable(1) %type) #9
  %call1 = call noundef i32 @_ZNK5arrow8DataType2idEv(ptr noundef nonnull align 8 dereferenceable(72) %call)
  %call2 = call noundef zeroext i1 @_ZN5arrow10is_integerENS_4Type4typeE(i32 noundef %call1)
  br i1 %call2, label %if.else, label %if.then

if.then:                                          ; preds = %entry
  call void @_ZN5arrow6Status7InvalidIJRA25_KcEEES0_DpOT_(ptr sret(%"class.arrow::Status") align 8 %agg.result, ptr noundef nonnull align 1 dereferenceable(25) @.str.3)
  br label %return

if.else:                                          ; preds = %entry
  %1 = load ptr, ptr %scalar.addr, align 8
  %is_valid = getelementptr inbounds %"struct.arrow::Scalar", ptr %1, i32 0, i32 3
  %2 = load i8, ptr %is_valid, align 8
  %tobool = trunc i8 %2 to i1
  br i1 %tobool, label %if.end, label %if.then3

if.then3:                                         ; preds = %if.else
  call void @_ZN5arrow6Status2OKEv(ptr sret(%"class.arrow::Status") align 8 %agg.result)
  br label %return

if.end:                                           ; preds = %if.else
  br label %if.end4

if.end4:                                          ; preds = %if.end
  %3 = load ptr, ptr %scalar.addr, align 8
  call void @_ZN5arrow9ArraySpanC2ERKNS_6ScalarE(ptr noundef nonnull align 8 dereferenceable(128) %span, ptr noundef nonnull align 8 dereferenceable(41) %3)
  %4 = load ptr, ptr %target_type.addr, align 8
  invoke void @_ZN5arrow8internal14IntegersCanFitERKNS_9ArraySpanERKNS_8DataTypeE(ptr sret(%"class.arrow::Status") align 8 %agg.result, ptr noundef nonnull align 8 dereferenceable(128) %span, ptr noundef nonnull align 8 dereferenceable(72) %4)
          to label %invoke.cont unwind label %lpad

invoke.cont:                                      ; preds = %if.end4
  call void @_ZN5arrow9ArraySpanD2Ev(ptr noundef nonnull align 8 dereferenceable(128) %span) #9
  br label %return

lpad:                                             ; preds = %if.end4
  %5 = landingpad { ptr, i32 }
          cleanup
  %6 = extractvalue { ptr, i32 } %5, 0
  store ptr %6, ptr %exn.slot, align 8
  %7 = extractvalue { ptr, i32 } %5, 1
  store i32 %7, ptr %ehselector.slot, align 4
  call void @_ZN5arrow9ArraySpanD2Ev(ptr noundef nonnull align 8 dereferenceable(128) %span) #9
  br label %eh.resume

return:                                           ; preds = %invoke.cont, %if.then3, %if.then
  ret void

eh.resume:                                        ; preds = %lpad
  %exn = load ptr, ptr %exn.slot, align 8
  %sel = load i32, ptr %ehselector.slot, align 4
  %lpad.val = insertvalue { ptr, i32 } poison, ptr %exn, 0
  %lpad.val5 = insertvalue { ptr, i32 } %lpad.val, i32 %sel, 1
  resume { ptr, i32 } %lpad.val5
}