; Function Attrs: mustprogress uwtable
define void @_ZN5arrow8internal14IntegersCanFitERKNS_6ScalarERKNS_8DataTypeE(ptr noalias sret(%"class.arrow::Status") align 8 %agg.result, ptr noundef nonnull align 8 dereferenceable(41) %scalar, ptr noundef nonnull align 8 dereferenceable(72) %target_type) local_unnamed_addr #6 personality ptr @__gxx_personality_v0 {
entry:
  %span = alloca %"struct.arrow::ArraySpan", align 8
  %type = getelementptr inbounds i8, ptr %scalar, i64 24
  %0 = load ptr, ptr %type, align 8
  %id_.i = getelementptr inbounds i8, ptr %0, i64 40
  %1 = load i32, ptr %id_.i, align 8
  %type_id.off.i = add i32 %1, -2
  %switch.i = icmp ult i32 %type_id.off.i, 8
  br i1 %switch.i, label %if.else, label %if.then

if.then:                                          ; preds = %entry
  tail call void @_ZN5arrow6Status8FromArgsIJRA25_KcEEES0_NS_10StatusCodeEDpOT_(ptr sret(%"class.arrow::Status") align 8 %agg.result, i8 noundef signext 4, ptr noundef nonnull align 1 dereferenceable(25) @.str.3)
  br label %return

if.else:                                          ; preds = %entry
  %is_valid = getelementptr inbounds i8, ptr %scalar, i64 40
  %2 = load i8, ptr %is_valid, align 8
  %3 = and i8 %2, 1
  %tobool.not = icmp eq i8 %3, 0
  br i1 %tobool.not, label %if.then3, label %if.end4

if.then3:                                         ; preds = %if.else
  store ptr null, ptr %agg.result, align 8, !alias.scope !620
  br label %return

if.end4:                                          ; preds = %if.else
  %null_count.i = getelementptr inbounds i8, ptr %span, i64 16
  call void @llvm.memset.p0.i64(ptr noundef nonnull align 8 dereferenceable(16) %span, i8 0, i64 16, i1 false)
  store i64 -1, ptr %null_count.i, align 8
  %offset.i = getelementptr inbounds i8, ptr %span, i64 24
  call void @llvm.memset.p0.i64(ptr noundef nonnull align 8 dereferenceable(104) %offset.i, i8 0, i64 104, i1 false)
  invoke void @_ZN5arrow9ArraySpan14FillFromScalarERKNS_6ScalarE(ptr noundef nonnull align 8 dereferenceable(128) %span, ptr noundef nonnull align 8 dereferenceable(41) %scalar)
          to label %_ZN5arrow9ArraySpanC2ERKNS_6ScalarE.exit unwind label %lpad.i

common.resume:                                    ; preds = %lpad, %lpad.i
  %common.resume.op = phi { ptr, i32 } [ %4, %lpad.i ], [ %8, %lpad ]
  resume { ptr, i32 } %common.resume.op

lpad.i:                                           ; preds = %if.end4
  %4 = landingpad { ptr, i32 }
          cleanup
  %child_data.i = getelementptr inbounds i8, ptr %span, i64 104
  call void @_ZNSt6vectorIN5arrow9ArraySpanESaIS1_EED2Ev(ptr noundef nonnull align 8 dereferenceable(24) %child_data.i) #15
  br label %common.resume

_ZN5arrow9ArraySpanC2ERKNS_6ScalarE.exit:         ; preds = %if.end4
  invoke void @_ZN5arrow8internal14IntegersCanFitERKNS_9ArraySpanERKNS_8DataTypeE(ptr sret(%"class.arrow::Status") align 8 %agg.result, ptr noundef nonnull align 8 dereferenceable(128) %span, ptr noundef nonnull align 8 dereferenceable(72) %target_type)
          to label %invoke.cont unwind label %lpad

invoke.cont:                                      ; preds = %_ZN5arrow9ArraySpanC2ERKNS_6ScalarE.exit
  %child_data.i3 = getelementptr inbounds i8, ptr %span, i64 104
  %5 = load ptr, ptr %child_data.i3, align 8
  %_M_finish.i.i = getelementptr inbounds i8, ptr %span, i64 112
  %6 = load ptr, ptr %_M_finish.i.i, align 8
  %cmp.not.i.i1.i.i = icmp eq ptr %5, %6
  br i1 %cmp.not.i.i1.i.i, label %invoke.cont.i.i, label %for.body.i.i.i.i

for.body.i.i.i.i:                                 ; preds = %invoke.cont, %for.body.i.i.i.i
  %__first.addr.0.i.i2.i.i = phi ptr [ %incdec.ptr.i.i.i.i, %for.body.i.i.i.i ], [ %5, %invoke.cont ]
  call void @_ZSt8_DestroyIN5arrow9ArraySpanEEvPT_(ptr noundef %__first.addr.0.i.i2.i.i)
  %incdec.ptr.i.i.i.i = getelementptr inbounds i8, ptr %__first.addr.0.i.i2.i.i, i64 128
  %cmp.not.i.i.i.i = icmp eq ptr %incdec.ptr.i.i.i.i, %6
  br i1 %cmp.not.i.i.i.i, label %invoke.cont.loopexit.i.i, label %for.body.i.i.i.i, !llvm.loop !623

invoke.cont.loopexit.i.i:                         ; preds = %for.body.i.i.i.i
  %.pre.i.i = load ptr, ptr %child_data.i3, align 8
  br label %invoke.cont.i.i

invoke.cont.i.i:                                  ; preds = %invoke.cont.loopexit.i.i, %invoke.cont
  %7 = phi ptr [ %.pre.i.i, %invoke.cont.loopexit.i.i ], [ %5, %invoke.cont ]
  %tobool.not.i.i.i.i = icmp eq ptr %7, null
  br i1 %tobool.not.i.i.i.i, label %return, label %if.then.i.i.i.i

if.then.i.i.i.i:                                  ; preds = %invoke.cont.i.i
  call void @_ZdlPv(ptr noundef nonnull %7) #16
  br label %return

lpad:                                             ; preds = %_ZN5arrow9ArraySpanC2ERKNS_6ScalarE.exit
  %8 = landingpad { ptr, i32 }
          cleanup
  call void @_ZN5arrow9ArraySpanD2Ev(ptr noundef nonnull align 8 dereferenceable(128) %span) #15
  br label %common.resume

return:                                           ; preds = %if.then.i.i.i.i, %invoke.cont.i.i, %if.then3, %if.then
  ret void
}